; Function Attrs: nounwind uwtable
define internal i32 @dissect_diameter_3gpp_contact(ptr noundef %0, ptr readnone captures(none) %1, ptr noundef %2, ptr readnone captures(none) %3) #0 {
  %5 = load i32, ptr @hf_diameter_3gpp_contact, align 4
  %6 = tail call ptr @proto_tree_add_item(ptr noundef %2, i32 noundef %5, ptr noundef %0, i32 noundef 0, i32 noundef -1, i32 noundef 0) #3
  %.not.i = icmp eq ptr %6, null
  br i1 %.not.i, label %proto_item_set_generated.exit, label %7

7:                                                ; preds = %4
  %8 = getelementptr inbounds nuw i8, ptr %6, i64 32
  %9 = load ptr, ptr %8, align 8
  %.not5.i = icmp eq ptr %9, null
  br i1 %.not5.i, label %proto_item_set_generated.exit, label %10

10:                                               ; preds = %7
  %11 = getelementptr inbounds nuw i8, ptr %9, i64 28
  %12 = load i32, ptr %11, align 4
  %13 = or i32 %12, 2
  store i32 %13, ptr %11, align 4
  br label %proto_item_set_generated.exit

proto_item_set_generated.exit:                    ; preds = %4, %7, %10
  %14 = tail call i32 @tvb_reported_length(ptr noundef %0) #3
  ret i32 %14
}